target datalayout = "e-m:e-p270:32:32-p271:32:32-p272:64:64-i64:64-i128:128-f80:128-n8:16:32:64-S128"
target triple = "x86_64-unknown-linux-gnu"

%"class.boost::detail::shared_count" = type { ptr }
%"class.boost::shared_ptr.55" = type { ptr, %"class.boost::detail::shared_count" }
%"class.boost::shared_ptr.57" = type { ptr, %"class.boost::detail::shared_count" }
%"class.boost::shared_ptr.56" = type { ptr, %"class.boost::detail::shared_count" }
%"class.boost::detail::sp_counted_base" = type { ptr, i32, i32 }

; Function Attrs: inlinehint mustprogress nounwind uwtable
define linkonce_odr void @_ZN5boost6detail16atomic_incrementEPj(ptr noundef %pw) #5 comdat {
entry:
  %pw.addr = alloca ptr, align 8
  %.atomictmp = alloca i32, align 4
  %atomic-temp = alloca i32, align 4
  store ptr %pw, ptr %pw.addr, align 8, !tbaa !3
  %0 = load ptr, ptr %pw.addr, align 8, !tbaa !3
  store i32 1, ptr %.atomictmp, align 4, !tbaa !90
  %1 = load i32, ptr %.atomictmp, align 4
  %2 = atomicrmw add ptr %0, i32 %1 monotonic, align 4
  store i32 %2, ptr %atomic-temp, align 4
  ret void
}

; Function Attrs: mustprogress uwtable
define linkonce_odr void @_ZN5boost6detail15sp_counted_base12add_ref_copyEv(ptr noundef nonnull align 8 dereferenceable(16) %this) #2 comdat align 2 {
entry:
  %this.addr = alloca ptr, align 8
  store ptr %this, ptr %this.addr, align 8, !tbaa !3
  %this1 = load ptr, ptr %this.addr, align 8
  %use_count_ = getelementptr inbounds nuw %"class.boost::detail::sp_counted_base", ptr %this1, i32 0, i32 1
  call void @_ZN5boost6detail16atomic_incrementEPj(ptr noundef %use_count_)
  ret void
}

; Function Attrs: inlinehint mustprogress nounwind uwtable
define linkonce_odr void @_ZN5boost6detail21sp_assert_convertibleIN8QuantLib15CmsSpreadCouponENS2_18FloatingRateCouponEEEvv() #5 comdat {
entry:
  ret void
}

; Function Attrs: mustprogress nounwind uwtable
define linkonce_odr void @_ZN5boost6detail12shared_countC2ERKS1_(ptr noundef nonnull align 8 dereferenceable(8) %this, ptr noundef nonnull align 8 dereferenceable(8) %r) unnamed_addr #1 comdat align 2 personality ptr @__gxx_personality_v0 {
entry:
  %this.addr = alloca ptr, align 8
  %r.addr = alloca ptr, align 8
  store ptr %this, ptr %this.addr, align 8, !tbaa !3
  store ptr %r, ptr %r.addr, align 8, !tbaa !3
  %this1 = load ptr, ptr %this.addr, align 8
  %pi_ = getelementptr inbounds nuw %"class.boost::detail::shared_count", ptr %this1, i32 0, i32 0
  %0 = load ptr, ptr %r.addr, align 8, !tbaa !3
  %pi_2 = getelementptr inbounds nuw %"class.boost::detail::shared_count", ptr %0, i32 0, i32 0
  %1 = load ptr, ptr %pi_2, align 8, !tbaa !128
  store ptr %1, ptr %pi_, align 8, !tbaa !128
  %pi_3 = getelementptr inbounds nuw %"class.boost::detail::shared_count", ptr %this1, i32 0, i32 0
  %2 = load ptr, ptr %pi_3, align 8, !tbaa !128
  %cmp = icmp ne ptr %2, null
  br i1 %cmp, label %if.then, label %if.end

if.then:                                          ; preds = %entry
  %pi_4 = getelementptr inbounds nuw %"class.boost::detail::shared_count", ptr %this1, i32 0, i32 0
  %3 = load ptr, ptr %pi_4, align 8, !tbaa !128
  invoke void @_ZN5boost6detail15sp_counted_base12add_ref_copyEv(ptr noundef nonnull align 8 dereferenceable(16) %3)
          to label %invoke.cont unwind label %terminate.lpad

invoke.cont:                                      ; preds = %if.then
  br label %if.end

if.end:                                           ; preds = %invoke.cont, %entry
  ret void

terminate.lpad:                                   ; preds = %if.then
  %4 = landingpad { ptr, i32 }
          catch ptr null
  %5 = extractvalue { ptr, i32 } %4, 0
  call void @__clang_call_terminate(ptr %5) #22
  unreachable
}

; Function Attrs: mustprogress nounwind uwtable
define linkonce_odr void @_ZN5boost10shared_ptrIN8QuantLib18DigitalReplicationEEC2ERKS3_(ptr noundef nonnull align 8 dereferenceable(16) %this, ptr noundef nonnull align 8 dereferenceable(16) %r) unnamed_addr #1 comdat align 2 {
entry:
  %this.addr = alloca ptr, align 8
  %r.addr = alloca ptr, align 8
  store ptr %this, ptr %this.addr, align 8, !tbaa !3
  store ptr %r, ptr %r.addr, align 8, !tbaa !3
  %this1 = load ptr, ptr %this.addr, align 8
  %px = getelementptr inbounds nuw %"class.boost::shared_ptr.57", ptr %this1, i32 0, i32 0
  %0 = load ptr, ptr %r.addr, align 8, !tbaa !3
  %px2 = getelementptr inbounds nuw %"class.boost::shared_ptr.57", ptr %0, i32 0, i32 0
  %1 = load ptr, ptr %px2, align 8, !tbaa !39
  store ptr %1, ptr %px, align 8, !tbaa !39
  %pn = getelementptr inbounds nuw %"class.boost::shared_ptr.57", ptr %this1, i32 0, i32 1
  %2 = load ptr, ptr %r.addr, align 8, !tbaa !3
  %pn3 = getelementptr inbounds nuw %"class.boost::shared_ptr.57", ptr %2, i32 0, i32 1
  call void @_ZN5boost6detail12shared_countC2ERKS1_(ptr noundef nonnull align 8 dereferenceable(8) %pn, ptr noundef nonnull align 8 dereferenceable(8) %pn3) #13
  ret void
}

; Function Attrs: mustprogress nounwind uwtable
define linkonce_odr void @_ZN5boost10shared_ptrIN8QuantLib18FloatingRateCouponEEC2INS1_15CmsSpreadCouponEEERKNS0_IT_EENS_6detail24sp_enable_if_convertibleIS6_S2_E4typeE(ptr noundef nonnull align 8 dereferenceable(16) %this, ptr noundef nonnull align 8 dereferenceable(16) %r) unnamed_addr #1 comdat align 2 {
entry:
  %this.addr = alloca ptr, align 8
  %r.addr = alloca ptr, align 8
  store ptr %this, ptr %this.addr, align 8, !tbaa !3
  store ptr %r, ptr %r.addr, align 8, !tbaa !3
  %this1 = load ptr, ptr %this.addr, align 8
  %px = getelementptr inbounds nuw %"class.boost::shared_ptr.55", ptr %this1, i32 0, i32 0
  %0 = load ptr, ptr %r.addr, align 8, !tbaa !3
  %px2 = getelementptr inbounds nuw %"class.boost::shared_ptr.56", ptr %0, i32 0, i32 0
  %1 = load ptr, ptr %px2, align 8, !tbaa !35
  store ptr %1, ptr %px, align 8, !tbaa !37
  %pn = getelementptr inbounds nuw %"class.boost::shared_ptr.55", ptr %this1, i32 0, i32 1
  %2 = load ptr, ptr %r.addr, align 8, !tbaa !3
  %pn3 = getelementptr inbounds nuw %"class.boost::shared_ptr.56", ptr %2, i32 0, i32 1
  call void @_ZN5boost6detail12shared_countC2ERKS1_(ptr noundef nonnull align 8 dereferenceable(8) %pn, ptr noundef nonnull align 8 dereferenceable(8) %pn3) #13
  call void @_ZN5boost6detail21sp_assert_convertibleIN8QuantLib15CmsSpreadCouponENS2_18FloatingRateCouponEEEvv() #13
  ret void
}

; Function Attrs: mustprogress uwtable
define void @_ZN8QuantLib22DigitalCmsSpreadCouponC2ERKN5boost10shared_ptrINS_15CmsSpreadCouponEEEdNS_8Position4TypeEbddS8_bdRKNS2_INS_18DigitalReplicationEEEb(ptr noundef nonnull align 8 dereferenceable(289) %this, ptr noundef %vtt, ptr noundef nonnull align 8 dereferenceable(16) %underlying, double noundef %callStrike, i32 noundef %callPosition, i1 noundef zeroext %isCallATMIncluded, double noundef %callDigitalPayoff, double noundef %putStrike, i32 noundef %putPosition, i1 noundef zeroext %isPutATMIncluded, double noundef %putDigitalPayoff, ptr noundef nonnull align 8 dereferenceable(16) %replication, i1 noundef zeroext %nakedOption) unnamed_addr #2 align 2 personality ptr @__gxx_personality_v0 {
entry:
  %this.addr = alloca ptr, align 8
  %vtt.addr = alloca ptr, align 8
  %underlying.addr = alloca ptr, align 8
  %callStrike.addr = alloca double, align 8
  %callPosition.addr = alloca i32, align 4
  %isCallATMIncluded.addr = alloca i8, align 1
  %callDigitalPayoff.addr = alloca double, align 8
  %putStrike.addr = alloca double, align 8
  %putPosition.addr = alloca i32, align 4
  %isPutATMIncluded.addr = alloca i8, align 1
  %putDigitalPayoff.addr = alloca double, align 8
  %replication.addr = alloca ptr, align 8
  %nakedOption.addr = alloca i8, align 1
  %ref.tmp = alloca %"class.boost::shared_ptr.55", align 8
  %agg.tmp6 = alloca %"class.boost::shared_ptr.57", align 8
  %exn.slot = alloca ptr, align 8
  %ehselector.slot = alloca i32, align 4
  store ptr %this, ptr %this.addr, align 8, !tbaa !3
  store ptr %vtt, ptr %vtt.addr, align 8, !tbaa !3
  store ptr %underlying, ptr %underlying.addr, align 8, !tbaa !3
  store double %callStrike, ptr %callStrike.addr, align 8, !tbaa !31
  store i32 %callPosition, ptr %callPosition.addr, align 4, !tbaa !32
  %storedv = zext i1 %isCallATMIncluded to i8
  store i8 %storedv, ptr %isCallATMIncluded.addr, align 1, !tbaa !34
  store double %callDigitalPayoff, ptr %callDigitalPayoff.addr, align 8, !tbaa !31
  store double %putStrike, ptr %putStrike.addr, align 8, !tbaa !31
  store i32 %putPosition, ptr %putPosition.addr, align 4, !tbaa !32
  %storedv1 = zext i1 %isPutATMIncluded to i8
  store i8 %storedv1, ptr %isPutATMIncluded.addr, align 1, !tbaa !34
  store double %putDigitalPayoff, ptr %putDigitalPayoff.addr, align 8, !tbaa !31
  store ptr %replication, ptr %replication.addr, align 8, !tbaa !3
  %storedv2 = zext i1 %nakedOption to i8
  store i8 %storedv2, ptr %nakedOption.addr, align 1, !tbaa !34
  %this3 = load ptr, ptr %this.addr, align 8
  %vtt4 = load ptr, ptr %vtt.addr, align 8
  call void @llvm.lifetime.start.p0(i64 16, ptr %ref.tmp) #13
  %0 = load ptr, ptr %underlying.addr, align 8, !tbaa !3
  call void @_ZN5boost10shared_ptrIN8QuantLib18FloatingRateCouponEEC2INS1_15CmsSpreadCouponEEERKNS0_IT_EENS_6detail24sp_enable_if_convertibleIS6_S2_E4typeE(ptr noundef nonnull align 8 dereferenceable(16) %ref.tmp, ptr noundef nonnull align 8 dereferenceable(16) %0) #13
  %1 = load double, ptr %callStrike.addr, align 8, !tbaa !31
  %2 = load i32, ptr %callPosition.addr, align 4, !tbaa !32
  %3 = load i8, ptr %isCallATMIncluded.addr, align 1, !tbaa !34, !range !15, !noundef !16
  %loadedv = trunc i8 %3 to i1
  %4 = load double, ptr %callDigitalPayoff.addr, align 8, !tbaa !31
  %5 = load double, ptr %putStrike.addr, align 8, !tbaa !31
  %6 = load i32, ptr %putPosition.addr, align 4, !tbaa !32
  %7 = load i8, ptr %isPutATMIncluded.addr, align 1, !tbaa !34, !range !15, !noundef !16
  %loadedv5 = trunc i8 %7 to i1
  %8 = load double, ptr %putDigitalPayoff.addr, align 8, !tbaa !31
  %9 = load ptr, ptr %replication.addr, align 8, !tbaa !3
  call void @_ZN5boost10shared_ptrIN8QuantLib18DigitalReplicationEEC2ERKS3_(ptr noundef nonnull align 8 dereferenceable(16) %agg.tmp6, ptr noundef nonnull align 8 dereferenceable(16) %9) #13
  %10 = load i8, ptr %nakedOption.addr, align 1, !tbaa !34, !range !15, !noundef !16
  %loadedv7 = trunc i8 %10 to i1
  %11 = getelementptr inbounds ptr, ptr %vtt4, i64 1
  invoke void @_ZN8QuantLib13DigitalCouponC2ERKN5boost10shared_ptrINS_18FloatingRateCouponEEEdNS_8Position4TypeEbddS8_bdNS2_INS_18DigitalReplicationEEEb(ptr noundef nonnull align 8 dereferenceable(289) %this3, ptr noundef %11, ptr noundef nonnull align 8 dereferenceable(16) %ref.tmp, double noundef %1, i32 noundef %2, i1 noundef zeroext %loadedv, double noundef %4, double noundef %5, i32 noundef %6, i1 noundef zeroext %loadedv5, double noundef %8, ptr noundef %agg.tmp6, i1 noundef zeroext %loadedv7)
          to label %invoke.cont unwind label %lpad

invoke.cont:                                      ; preds = %entry
  call void @_ZN5boost10shared_ptrIN8QuantLib18DigitalReplicationEED2Ev(ptr noundef nonnull align 8 dereferenceable(16) %agg.tmp6) #13
  call void @_ZN5boost10shared_ptrIN8QuantLib18FloatingRateCouponEED2Ev(ptr noundef nonnull align 8 dereferenceable(16) %ref.tmp) #13
  call void @llvm.lifetime.end.p0(i64 16, ptr %ref.tmp) #13
  %12 = load ptr, ptr %vtt4, align 8
  store ptr %12, ptr %this3, align 8, !tbaa !20
  %13 = getelementptr inbounds ptr, ptr %vtt4, i64 22
  %14 = load ptr, ptr %13, align 8
  %vtable = load ptr, ptr %this3, align 8, !tbaa !20
  %vbase.offset.ptr = getelementptr i8, ptr %vtable, i64 -24
  %vbase.offset = load i64, ptr %vbase.offset.ptr, align 8
  %add.ptr = getelementptr inbounds i8, ptr %this3, i64 %vbase.offset
  store ptr %14, ptr %add.ptr, align 8, !tbaa !20
  %15 = getelementptr inbounds ptr, ptr %vtt4, i64 23
  %16 = load ptr, ptr %15, align 8
  %add.ptr8 = getelementptr inbounds i8, ptr %this3, i64 8
  store ptr %16, ptr %add.ptr8, align 8, !tbaa !20
  %17 = getelementptr inbounds ptr, ptr %vtt4, i64 24
  %18 = load ptr, ptr %17, align 8
  %vtable9 = load ptr, ptr %this3, align 8, !tbaa !20
  %vbase.offset.ptr10 = getelementptr i8, ptr %vtable9, i64 -32
  %vbase.offset11 = load i64, ptr %vbase.offset.ptr10, align 8
  %add.ptr12 = getelementptr inbounds i8, ptr %this3, i64 %vbase.offset11
  store ptr %18, ptr %add.ptr12, align 8, !tbaa !20
  ret void

lpad:                                             ; preds = %entry
  %19 = landingpad { ptr, i32 }
          cleanup
  %20 = extractvalue { ptr, i32 } %19, 0
  store ptr %20, ptr %exn.slot, align 8
  %21 = extractvalue { ptr, i32 } %19, 1
  store i32 %21, ptr %ehselector.slot, align 4
  call void @_ZN5boost10shared_ptrIN8QuantLib18DigitalReplicationEED2Ev(ptr noundef nonnull align 8 dereferenceable(16) %agg.tmp6) #13
  call void @_ZN5boost10shared_ptrIN8QuantLib18FloatingRateCouponEED2Ev(ptr noundef nonnull align 8 dereferenceable(16) %ref.tmp) #13
  call void @llvm.lifetime.end.p0(i64 16, ptr %ref.tmp) #13
  br label %eh.resume

eh.resume:                                        ; preds = %lpad
  %exn = load ptr, ptr %exn.slot, align 8
  %sel = load i32, ptr %ehselector.slot, align 4
  %lpad.val = insertvalue { ptr, i32 } poison, ptr %exn, 0
  %lpad.val13 = insertvalue { ptr, i32 } %lpad.val, i32 %sel, 1
  resume { ptr, i32 } %lpad.val13
}